target datalayout = "e-m:e-p270:32:32-p271:32:32-p272:64:64-i64:64-i128:128-f80:128-n8:16:32:64-S128"
target triple = "x86_64-pc-linux-gnu"

%struct.trav_table_t = type { i64, i64, i64, ptr }

; Function Attrs: nounwind uwtable
define void @trav_table_init(i64 noundef %0, ptr noundef %1) #0 {
  %3 = alloca i64, align 8
  %4 = alloca ptr, align 8
  %5 = alloca ptr, align 8
  store i64 %0, ptr %3, align 8, !tbaa !21
  store ptr %1, ptr %4, align 8, !tbaa !98
  call void @llvm.lifetime.start.p0(i64 8, ptr %5) #10
  %6 = call noalias ptr @malloc(i64 noundef 32) #13
  store ptr %6, ptr %5, align 8, !tbaa !77
  %7 = load ptr, ptr %5, align 8, !tbaa !77
  %8 = icmp ne ptr %7, null
  br i1 %8, label %9, label %19

9:                                                ; preds = %2
  %10 = load i64, ptr %3, align 8, !tbaa !21
  %11 = load ptr, ptr %5, align 8, !tbaa !77
  %12 = getelementptr inbounds nuw %struct.trav_table_t, ptr %11, i32 0, i32 0
  store i64 %10, ptr %12, align 8, !tbaa !100
  %13 = load ptr, ptr %5, align 8, !tbaa !77
  %14 = getelementptr inbounds nuw %struct.trav_table_t, ptr %13, i32 0, i32 1
  store i64 0, ptr %14, align 8, !tbaa !94
  %15 = load ptr, ptr %5, align 8, !tbaa !77
  %16 = getelementptr inbounds nuw %struct.trav_table_t, ptr %15, i32 0, i32 2
  store i64 0, ptr %16, align 8, !tbaa !79
  %17 = load ptr, ptr %5, align 8, !tbaa !77
  %18 = getelementptr inbounds nuw %struct.trav_table_t, ptr %17, i32 0, i32 3
  store ptr null, ptr %18, align 8, !tbaa !82
  br label %19

19:                                               ; preds = %9, %2
  %20 = load ptr, ptr %5, align 8, !tbaa !77
  %21 = load ptr, ptr %4, align 8, !tbaa !98
  store ptr %20, ptr %21, align 8, !tbaa !77
  call void @llvm.lifetime.end.p0(i64 8, ptr %5) #10
  ret void
}