; Function Attrs: mustprogress nofree nounwind willreturn memory(write, inaccessiblemem: readwrite) uwtable
define void @trav_table_init(i64 noundef %0, ptr noundef writeonly captures(none) initializes((0, 8)) %1) local_unnamed_addr #9 {
  %3 = tail call noalias dereferenceable_or_null(32) ptr @malloc(i64 noundef 32) #21
  %.not = icmp eq ptr %3, null
  br i1 %.not, label %6, label %4

4:                                                ; preds = %2
  store i64 %0, ptr %3, align 8, !tbaa !79
  %5 = getelementptr inbounds nuw i8, ptr %3, i64 8
  tail call void @llvm.memset.p0.i64(ptr noundef nonnull align 8 dereferenceable(24) %5, i8 0, i64 24, i1 false)
  br label %6

6:                                                ; preds = %4, %2
  store ptr %3, ptr %1, align 8, !tbaa !89
  ret void
}